target datalayout = "e-m:e-p270:32:32-p271:32:32-p272:64:64-i64:64-i128:128-f80:128-n8:16:32:64-S128"
target triple = "x86_64-unknown-linux-gnu"

%struct.UResourceBundle = type { ptr, ptr, ptr, ptr, ptr, [64 x i8], i32, i32, i8, i8, i32, i32, i32, i32 }
%struct.UResourceDataEntry = type { ptr, ptr, ptr, ptr, ptr, %struct.ResourceData, [3 x i8], i32, i32 }
%struct.ResourceData = type { ptr, ptr, ptr, ptr, i32, i32, ptr, i32, i32, i8, i8, i8, i8 }

; Function Attrs: mustprogress uwtable
define internal noundef ptr @_ZN12_GLOBAL__N_116init_resb_resultEP18UResourceDataEntryjPKciPK15UResourceBundlePS4_P10UErrorCode(ptr noundef %dataEntry, i32 noundef %r, ptr noundef %key, i32 noundef %idx, ptr noundef %container, ptr noundef %resB, ptr noundef %status) #1 {
entry:
  %dataEntry.addr = alloca ptr, align 8
  %r.addr = alloca i32, align 4
  %key.addr = alloca ptr, align 8
  %idx.addr = alloca i32, align 4
  %container.addr = alloca ptr, align 8
  %resB.addr = alloca ptr, align 8
  %status.addr = alloca ptr, align 8
  store ptr %dataEntry, ptr %dataEntry.addr, align 8
  store i32 %r, ptr %r.addr, align 4
  store ptr %key, ptr %key.addr, align 8
  store i32 %idx, ptr %idx.addr, align 4
  store ptr %container, ptr %container.addr, align 8
  store ptr %resB, ptr %resB.addr, align 8
  store ptr %status, ptr %status.addr, align 8
  %0 = load ptr, ptr %dataEntry.addr, align 8
  %1 = load i32, ptr %r.addr, align 4
  %2 = load ptr, ptr %key.addr, align 8
  %3 = load i32, ptr %idx.addr, align 4
  %4 = load ptr, ptr %container.addr, align 8
  %fValidLocaleDataEntry = getelementptr inbounds %struct.UResourceBundle, ptr %4, i32 0, i32 3
  %5 = load ptr, ptr %fValidLocaleDataEntry, align 8
  %6 = load ptr, ptr %container.addr, align 8
  %fResPath = getelementptr inbounds %struct.UResourceBundle, ptr %6, i32 0, i32 4
  %7 = load ptr, ptr %fResPath, align 8
  %8 = load ptr, ptr %resB.addr, align 8
  %9 = load ptr, ptr %status.addr, align 8
  %call = call noundef ptr @_ZN12_GLOBAL__N_116init_resb_resultEP18UResourceDataEntryjPKciS1_S3_iP15UResourceBundleP10UErrorCode(ptr noundef %0, i32 noundef %1, ptr noundef %2, i32 noundef %3, ptr noundef %5, ptr noundef %7, i32 noundef 0, ptr noundef %8, ptr noundef %9)
  ret ptr %call
}

; Function Attrs: mustprogress nounwind uwtable
define linkonce_odr noundef nonnull align 8 dereferenceable(64) ptr @_ZNK15UResourceBundle10getResDataEv(ptr noundef nonnull align 8 dereferenceable(136) %this) #0 comdat align 2 {
entry:
  %this.addr = alloca ptr, align 8
  store ptr %this, ptr %this.addr, align 8
  %this1 = load ptr, ptr %this.addr, align 8
  %fData = getelementptr inbounds %struct.UResourceBundle, ptr %this1, i32 0, i32 1
  %0 = load ptr, ptr %fData, align 8
  %fData2 = getelementptr inbounds %struct.UResourceDataEntry, ptr %0, i32 0, i32 5
  ret ptr %fData2
}

; Function Attrs: mustprogress nounwind uwtable
define internal noundef signext i8 @_ZL9U_FAILURE10UErrorCode(i32 noundef %code) #0 {
entry:
  %code.addr = alloca i32, align 4
  store i32 %code, ptr %code.addr, align 4
  %0 = load i32, ptr %code.addr, align 4
  %cmp = icmp sgt i32 %0, 0
  %conv = zext i1 %cmp to i8
  ret i8 %conv
}

; Function Attrs: mustprogress uwtable
define ptr @ures_getNextResource_75(ptr noundef %resB, ptr noundef %fillIn, ptr noundef %status) #1 {
entry:
  %retval = alloca ptr, align 8
  %resB.addr = alloca ptr, align 8
  %fillIn.addr = alloca ptr, align 8
  %status.addr = alloca ptr, align 8
  %key = alloca ptr, align 8
  %r = alloca i32, align 4
  store ptr %resB, ptr %resB.addr, align 8
  store ptr %fillIn, ptr %fillIn.addr, align 8
  store ptr %status, ptr %status.addr, align 8
  store ptr null, ptr %key, align 8
  store i32 -1, ptr %r, align 4
  %0 = load ptr, ptr %status.addr, align 8
  %cmp = icmp eq ptr %0, null
  br i1 %cmp, label %if.then, label %lor.lhs.false

lor.lhs.false:                                    ; preds = %entry
  %1 = load ptr, ptr %status.addr, align 8
  %2 = load i32, ptr %1, align 4
  %call = call noundef signext i8 @_ZL9U_FAILURE10UErrorCode(i32 noundef %2)
  %tobool = icmp ne i8 %call, 0
  br i1 %tobool, label %if.then, label %if.end

if.then:                                          ; preds = %lor.lhs.false, %entry
  %3 = load ptr, ptr %fillIn.addr, align 8
  store ptr %3, ptr %retval, align 8
  br label %return

if.end:                                           ; preds = %lor.lhs.false
  %4 = load ptr, ptr %resB.addr, align 8
  %cmp1 = icmp eq ptr %4, null
  br i1 %cmp1, label %if.then2, label %if.end3

if.then2:                                         ; preds = %if.end
  %5 = load ptr, ptr %status.addr, align 8
  store i32 1, ptr %5, align 4
  %6 = load ptr, ptr %fillIn.addr, align 8
  store ptr %6, ptr %retval, align 8
  br label %return

if.end3:                                          ; preds = %if.end
  %7 = load ptr, ptr %resB.addr, align 8
  %fIndex = getelementptr inbounds %struct.UResourceBundle, ptr %7, i32 0, i32 12
  %8 = load i32, ptr %fIndex, align 4
  %9 = load ptr, ptr %resB.addr, align 8
  %fSize = getelementptr inbounds %struct.UResourceBundle, ptr %9, i32 0, i32 13
  %10 = load i32, ptr %fSize, align 8
  %sub = sub nsw i32 %10, 1
  %cmp4 = icmp eq i32 %8, %sub
  br i1 %cmp4, label %if.then5, label %if.else

if.then5:                                         ; preds = %if.end3
  %11 = load ptr, ptr %status.addr, align 8
  store i32 8, ptr %11, align 4
  br label %if.end33

if.else:                                          ; preds = %if.end3
  %12 = load ptr, ptr %resB.addr, align 8
  %fIndex6 = getelementptr inbounds %struct.UResourceBundle, ptr %12, i32 0, i32 12
  %13 = load i32, ptr %fIndex6, align 4
  %inc = add nsw i32 %13, 1
  store i32 %inc, ptr %fIndex6, align 4
  %14 = load ptr, ptr %resB.addr, align 8
  %fRes = getelementptr inbounds %struct.UResourceBundle, ptr %14, i32 0, i32 7
  %15 = load i32, ptr %fRes, align 4
  %shr = lshr i32 %15, 28
  switch i32 %shr, label %sw.default [
    i32 7, label %sw.bb
    i32 1, label %sw.bb
    i32 0, label %sw.bb
    i32 6, label %sw.bb
    i32 14, label %sw.bb
    i32 2, label %sw.bb8
    i32 5, label %sw.bb8
    i32 4, label %sw.bb8
    i32 8, label %sw.bb19
    i32 9, label %sw.bb19
  ]

sw.bb:                                            ; preds = %if.else, %if.else, %if.else, %if.else, %if.else
  %16 = load ptr, ptr %fillIn.addr, align 8
  %17 = load ptr, ptr %resB.addr, align 8
  %18 = load ptr, ptr %status.addr, align 8
  %call7 = call ptr @ures_copyResb_75(ptr noundef %16, ptr noundef %17, ptr noundef %18)
  store ptr %call7, ptr %retval, align 8
  br label %return

sw.bb8:                                           ; preds = %if.else, %if.else, %if.else
  %19 = load ptr, ptr %resB.addr, align 8
  %call9 = call noundef nonnull align 8 dereferenceable(64) ptr @_ZNK15UResourceBundle10getResDataEv(ptr noundef nonnull align 8 dereferenceable(136) %19)
  %20 = load ptr, ptr %resB.addr, align 8
  %fRes10 = getelementptr inbounds %struct.UResourceBundle, ptr %20, i32 0, i32 7
  %21 = load i32, ptr %fRes10, align 4
  %22 = load ptr, ptr %resB.addr, align 8
  %fIndex11 = getelementptr inbounds %struct.UResourceBundle, ptr %22, i32 0, i32 12
  %23 = load i32, ptr %fIndex11, align 4
  %call12 = call i32 @res_getTableItemByIndex_75(ptr noundef %call9, i32 noundef %21, i32 noundef %23, ptr noundef %key)
  store i32 %call12, ptr %r, align 4
  %24 = load i32, ptr %r, align 4
  %cmp13 = icmp eq i32 %24, -1
  br i1 %cmp13, label %land.lhs.true, label %if.end16

land.lhs.true:                                    ; preds = %sw.bb8
  %25 = load ptr, ptr %resB.addr, align 8
  %fHasFallback = getelementptr inbounds %struct.UResourceBundle, ptr %25, i32 0, i32 8
  %26 = load i8, ptr %fHasFallback, align 8
  %tobool14 = icmp ne i8 %26, 0
  br i1 %tobool14, label %if.then15, label %if.end16

if.then15:                                        ; preds = %land.lhs.true
  br label %if.end16

if.end16:                                         ; preds = %if.then15, %land.lhs.true, %sw.bb8
  %27 = load ptr, ptr %resB.addr, align 8
  %fData = getelementptr inbounds %struct.UResourceBundle, ptr %27, i32 0, i32 1
  %28 = load ptr, ptr %fData, align 8
  %29 = load i32, ptr %r, align 4
  %30 = load ptr, ptr %key, align 8
  %31 = load ptr, ptr %resB.addr, align 8
  %fIndex17 = getelementptr inbounds %struct.UResourceBundle, ptr %31, i32 0, i32 12
  %32 = load i32, ptr %fIndex17, align 4
  %33 = load ptr, ptr %resB.addr, align 8
  %34 = load ptr, ptr %fillIn.addr, align 8
  %35 = load ptr, ptr %status.addr, align 8
  %call18 = call noundef ptr @_ZN12_GLOBAL__N_116init_resb_resultEP18UResourceDataEntryjPKciPK15UResourceBundlePS4_P10UErrorCode(ptr noundef %28, i32 noundef %29, ptr noundef %30, i32 noundef %32, ptr noundef %33, ptr noundef %34, ptr noundef %35)
  store ptr %call18, ptr %retval, align 8
  br label %return

sw.bb19:                                          ; preds = %if.else, %if.else
  %36 = load ptr, ptr %resB.addr, align 8
  %call20 = call noundef nonnull align 8 dereferenceable(64) ptr @_ZNK15UResourceBundle10getResDataEv(ptr noundef nonnull align 8 dereferenceable(136) %36)
  %37 = load ptr, ptr %resB.addr, align 8
  %fRes21 = getelementptr inbounds %struct.UResourceBundle, ptr %37, i32 0, i32 7
  %38 = load i32, ptr %fRes21, align 4
  %39 = load ptr, ptr %resB.addr, align 8
  %fIndex22 = getelementptr inbounds %struct.UResourceBundle, ptr %39, i32 0, i32 12
  %40 = load i32, ptr %fIndex22, align 4
  %call23 = call i32 @res_getArrayItem_75(ptr noundef %call20, i32 noundef %38, i32 noundef %40)
  store i32 %call23, ptr %r, align 4
  %41 = load i32, ptr %r, align 4
  %cmp24 = icmp eq i32 %41, -1
  br i1 %cmp24, label %land.lhs.true25, label %if.end29

land.lhs.true25:                                  ; preds = %sw.bb19
  %42 = load ptr, ptr %resB.addr, align 8
  %fHasFallback26 = getelementptr inbounds %struct.UResourceBundle, ptr %42, i32 0, i32 8
  %43 = load i8, ptr %fHasFallback26, align 8
  %tobool27 = icmp ne i8 %43, 0
  br i1 %tobool27, label %if.then28, label %if.end29

if.then28:                                        ; preds = %land.lhs.true25
  br label %if.end29

if.end29:                                         ; preds = %if.then28, %land.lhs.true25, %sw.bb19
  %44 = load ptr, ptr %resB.addr, align 8
  %fData30 = getelementptr inbounds %struct.UResourceBundle, ptr %44, i32 0, i32 1
  %45 = load ptr, ptr %fData30, align 8
  %46 = load i32, ptr %r, align 4
  %47 = load ptr, ptr %key, align 8
  %48 = load ptr, ptr %resB.addr, align 8
  %fIndex31 = getelementptr inbounds %struct.UResourceBundle, ptr %48, i32 0, i32 12
  %49 = load i32, ptr %fIndex31, align 4
  %50 = load ptr, ptr %resB.addr, align 8
  %51 = load ptr, ptr %fillIn.addr, align 8
  %52 = load ptr, ptr %status.addr, align 8
  %call32 = call noundef ptr @_ZN12_GLOBAL__N_116init_resb_resultEP18UResourceDataEntryjPKciPK15UResourceBundlePS4_P10UErrorCode(ptr noundef %45, i32 noundef %46, ptr noundef %47, i32 noundef %49, ptr noundef %50, ptr noundef %51, ptr noundef %52)
  store ptr %call32, ptr %retval, align 8
  br label %return

sw.default:                                       ; preds = %if.else
  %53 = load ptr, ptr %fillIn.addr, align 8
  store ptr %53, ptr %retval, align 8
  br label %return

if.end33:                                         ; preds = %if.then5
  %54 = load ptr, ptr %fillIn.addr, align 8
  store ptr %54, ptr %retval, align 8
  br label %return

return:                                           ; preds = %if.end33, %sw.default, %if.end29, %if.end16, %sw.bb, %if.then2, %if.then
  %55 = load ptr, ptr %retval, align 8
  ret ptr %55
}