; Function Attrs: mustprogress uwtable
define noundef ptr @ures_getNextResource_75(ptr noundef %resB, ptr noundef %fillIn, ptr noundef %status) local_unnamed_addr #1 {
entry:
  %key = alloca ptr, align 8
  store ptr null, ptr %key, align 8
  %cmp = icmp eq ptr %status, null
  br i1 %cmp, label %return, label %lor.lhs.false

lor.lhs.false:                                    ; preds = %entry
  %0 = load i32, ptr %status, align 4
  %cmp.i = icmp slt i32 %0, 1
  br i1 %cmp.i, label %if.end, label %return

if.end:                                           ; preds = %lor.lhs.false
  %cmp1 = icmp eq ptr %resB, null
  br i1 %cmp1, label %if.then2, label %if.end3

if.then2:                                         ; preds = %if.end
  store i32 1, ptr %status, align 4
  br label %return

if.end3:                                          ; preds = %if.end
  %fIndex = getelementptr inbounds i8, ptr %resB, i64 124
  %1 = load i32, ptr %fIndex, align 4
  %fSize = getelementptr inbounds i8, ptr %resB, i64 128
  %2 = load i32, ptr %fSize, align 8
  %sub = add nsw i32 %2, -1
  %cmp4 = icmp eq i32 %1, %sub
  br i1 %cmp4, label %if.then5, label %if.else

if.then5:                                         ; preds = %if.end3
  store i32 8, ptr %status, align 4
  br label %return

if.else:                                          ; preds = %if.end3
  %inc = add nsw i32 %1, 1
  store i32 %inc, ptr %fIndex, align 4
  %fRes = getelementptr inbounds i8, ptr %resB, i64 108
  %3 = load i32, ptr %fRes, align 4
  %shr = lshr i32 %3, 28
  switch i32 %shr, label %return [
    i32 7, label %sw.bb
    i32 1, label %sw.bb
    i32 0, label %sw.bb
    i32 6, label %sw.bb
    i32 14, label %sw.bb
    i32 2, label %sw.bb8
    i32 5, label %sw.bb8
    i32 4, label %sw.bb8
    i32 8, label %sw.bb19
    i32 9, label %sw.bb19
  ]

sw.bb:                                            ; preds = %if.else, %if.else, %if.else, %if.else, %if.else
  %call7 = tail call ptr @ures_copyResb_75(ptr noundef %fillIn, ptr noundef nonnull %resB, ptr noundef nonnull %status)
  br label %return

sw.bb8:                                           ; preds = %if.else, %if.else, %if.else
  %fData.i = getelementptr inbounds i8, ptr %resB, i64 8
  %4 = load ptr, ptr %fData.i, align 8
  %fData2.i = getelementptr inbounds i8, ptr %4, i64 40
  %call12 = call i32 @res_getTableItemByIndex_75(ptr noundef nonnull %fData2.i, i32 noundef %3, i32 noundef %inc, ptr noundef nonnull %key)
  %5 = load ptr, ptr %fData.i, align 8
  %6 = load ptr, ptr %key, align 8
  %7 = load i32, ptr %fIndex, align 4
  %8 = getelementptr i8, ptr %resB, i64 24
  %resB.val = load ptr, ptr %8, align 8
  %9 = getelementptr i8, ptr %resB, i64 32
  %resB.val33 = load ptr, ptr %9, align 8
  %call.i = call fastcc noundef ptr @_ZN12_GLOBAL__N_116init_resb_resultEP18UResourceDataEntryjPKciS1_S3_iP15UResourceBundleP10UErrorCode(ptr noundef %5, i32 noundef %call12, ptr noundef %6, i32 noundef %7, ptr noundef %resB.val, ptr noundef %resB.val33, i32 noundef 0, ptr noundef %fillIn, ptr noundef nonnull %status)
  br label %return

sw.bb19:                                          ; preds = %if.else, %if.else
  %fData.i36 = getelementptr inbounds i8, ptr %resB, i64 8
  %10 = load ptr, ptr %fData.i36, align 8
  %fData2.i37 = getelementptr inbounds i8, ptr %10, i64 40
  %call23 = tail call i32 @res_getArrayItem_75(ptr noundef nonnull %fData2.i37, i32 noundef %3, i32 noundef %inc)
  %11 = load ptr, ptr %fData.i36, align 8
  %12 = load i32, ptr %fIndex, align 4
  %13 = getelementptr i8, ptr %resB, i64 24
  %resB.val34 = load ptr, ptr %13, align 8
  %14 = getelementptr i8, ptr %resB, i64 32
  %resB.val35 = load ptr, ptr %14, align 8
  %call.i38 = tail call fastcc noundef ptr @_ZN12_GLOBAL__N_116init_resb_resultEP18UResourceDataEntryjPKciS1_S3_iP15UResourceBundleP10UErrorCode(ptr noundef %11, i32 noundef %call23, ptr noundef null, i32 noundef %12, ptr noundef %resB.val34, ptr noundef %resB.val35, i32 noundef 0, ptr noundef %fillIn, ptr noundef nonnull %status)
  br label %return

return:                                           ; preds = %if.else, %entry, %lor.lhs.false, %if.then5, %sw.bb19, %sw.bb8, %sw.bb, %if.then2
  %retval.0 = phi ptr [ %fillIn, %if.then2 ], [ %fillIn, %if.then5 ], [ %call.i38, %sw.bb19 ], [ %call.i, %sw.bb8 ], [ %call7, %sw.bb ], [ %fillIn, %lor.lhs.false ], [ %fillIn, %entry ], [ %fillIn, %if.else ]
  ret ptr %retval.0
}